; Function Attrs: mustprogress nounwind uwtable
define hidden void @_ZN24ShenandoahEvacOOMHandler20wait_for_one_counterEP24ShenandoahEvacOOMCounter(ptr nocapture noundef nonnull readnone align 8 dereferenceable(80) %0, ptr noundef %1) local_unnamed_addr #1 align 2 {
  %3 = load volatile i32, ptr %1, align 4
  tail call void asm sideeffect "", "~{memory},~{dirflag},~{fpsr},~{flags}"() #8, !srcloc !8
  %.not1 = icmp eq i32 %3, -2147483648
  br i1 %.not1, label %._crit_edge, label %.lr.ph

.lr.ph:                                           ; preds = %2, %.lr.ph
  tail call void @_ZN2os17naked_short_sleepEl(i64 noundef 1) #8
  %4 = load volatile i32, ptr %1, align 4
  tail call void asm sideeffect "", "~{memory},~{dirflag},~{fpsr},~{flags}"() #8, !srcloc !8
  %.not = icmp eq i32 %4, -2147483648
  br i1 %.not, label %._crit_edge, label %.lr.ph, !llvm.loop !14

._crit_edge:                                      ; preds = %.lr.ph, %2
  ret void
}